target datalayout = "e-m:e-p270:32:32-p271:32:32-p272:64:64-i64:64-i128:128-f80:128-n8:16:32:64-S128"
target triple = "x86_64-pc-linux-gnu"

%class.vector.43 = type { ptr }

; Function Attrs: mustprogress nounwind uwtable
define linkonce_odr hidden noundef i32 @_ZNK6vectorIN3mbp3defELb1EjE4sizeEv(ptr noundef nonnull align 8 dereferenceable(8) %0) #6 comdat align 2 {
  %2 = alloca i32, align 4
  %3 = alloca ptr, align 8
  store ptr %0, ptr %3, align 8, !tbaa !26
  %4 = load ptr, ptr %3, align 8
  %5 = getelementptr inbounds nuw %class.vector.43, ptr %4, i32 0, i32 0
  %6 = load ptr, ptr %5, align 8, !tbaa !69
  %7 = icmp eq ptr %6, null
  br i1 %7, label %8, label %9

8:                                                ; preds = %1
  store i32 0, ptr %2, align 4
  br label %14

9:                                                ; preds = %1
  %10 = getelementptr inbounds nuw %class.vector.43, ptr %4, i32 0, i32 0
  %11 = load ptr, ptr %10, align 8, !tbaa !69
  %12 = getelementptr inbounds i32, ptr %11, i64 -1
  %13 = load i32, ptr %12, align 4, !tbaa !62
  store i32 %13, ptr %2, align 4
  br label %14

14:                                               ; preds = %9, %8
  %15 = load i32, ptr %2, align 4
  ret i32 %15
}

; Function Attrs: mustprogress uwtable
define hidden noundef zeroext i1 @_ZN3mbp18euf_project_plugin18solve_eqs_saturateER5modelR10ref_vectorI3app11ast_managerERS3_I4exprS5_ER6vectorINS_3defELb1EjE(ptr noundef nonnull align 8 dereferenceable(192) %0, ptr noundef nonnull align 8 dereferenceable(160) %1, ptr noundef nonnull align 8 dereferenceable(16) %2, ptr noundef nonnull align 8 dereferenceable(16) %3, ptr noundef nonnull align 8 dereferenceable(8) %4) #4 align 2 {
  %6 = alloca ptr, align 8
  %7 = alloca ptr, align 8
  %8 = alloca ptr, align 8
  %9 = alloca ptr, align 8
  %10 = alloca ptr, align 8
  %11 = alloca i32, align 4
  %12 = alloca i32, align 4
  %13 = alloca i32, align 4
  store ptr %0, ptr %6, align 8, !tbaa !3
  store ptr %1, ptr %7, align 8, !tbaa !18
  store ptr %2, ptr %8, align 8, !tbaa !22
  store ptr %3, ptr %9, align 8, !tbaa !24
  store ptr %4, ptr %10, align 8, !tbaa !26
  %14 = load ptr, ptr %6, align 8
  call void @llvm.lifetime.start.p0(i64 4, ptr %11) #3
  %15 = load ptr, ptr %10, align 8, !tbaa !26
  %16 = call noundef i32 @_ZNK6vectorIN3mbp3defELb1EjE4sizeEv(ptr noundef nonnull align 8 dereferenceable(8) %15)
  store i32 %16, ptr %11, align 4, !tbaa !62
  br label %17

17:                                               ; preds = %33, %5
  br label %18

18:                                               ; preds = %17
  call void @llvm.lifetime.start.p0(i64 4, ptr %12) #3
  %19 = load ptr, ptr %10, align 8, !tbaa !26
  %20 = call noundef i32 @_ZNK6vectorIN3mbp3defELb1EjE4sizeEv(ptr noundef nonnull align 8 dereferenceable(8) %19)
  store i32 %20, ptr %12, align 4, !tbaa !62
  %21 = load ptr, ptr %7, align 8, !tbaa !18
  %22 = load ptr, ptr %8, align 8, !tbaa !22
  %23 = load ptr, ptr %9, align 8, !tbaa !24
  %24 = load ptr, ptr %10, align 8, !tbaa !26
  call void @_ZN3mbp18euf_project_plugin9solve_eqsER5modelR10ref_vectorI3app11ast_managerERS3_I4exprS5_ER6vectorINS_3defELb1EjE(ptr noundef nonnull align 8 dereferenceable(192) %14, ptr noundef nonnull align 8 dereferenceable(160) %21, ptr noundef nonnull align 8 dereferenceable(16) %22, ptr noundef nonnull align 8 dereferenceable(16) %23, ptr noundef nonnull align 8 dereferenceable(8) %24)
  %25 = load i32, ptr %12, align 4, !tbaa !62
  %26 = load ptr, ptr %10, align 8, !tbaa !26
  %27 = call noundef i32 @_ZNK6vectorIN3mbp3defELb1EjE4sizeEv(ptr noundef nonnull align 8 dereferenceable(8) %26)
  %28 = icmp eq i32 %25, %27
  br i1 %28, label %29, label %30

29:                                               ; preds = %18
  store i32 3, ptr %13, align 4
  br label %31

30:                                               ; preds = %18
  store i32 0, ptr %13, align 4
  br label %31

31:                                               ; preds = %30, %29
  call void @llvm.lifetime.end.p0(i64 4, ptr %12) #3
  %32 = load i32, ptr %13, align 4
  switch i32 %32, label %39 [
    i32 0, label %33
    i32 3, label %34
  ]

33:                                               ; preds = %31
  br label %17, !llvm.loop !75

34:                                               ; preds = %31
  %35 = load i32, ptr %11, align 4, !tbaa !62
  %36 = load ptr, ptr %10, align 8, !tbaa !26
  %37 = call noundef i32 @_ZNK6vectorIN3mbp3defELb1EjE4sizeEv(ptr noundef nonnull align 8 dereferenceable(8) %36)
  %38 = icmp ult i32 %35, %37
  store i32 1, ptr %13, align 4
  call void @llvm.lifetime.end.p0(i64 4, ptr %11) #3
  ret i1 %38

39:                                               ; preds = %31
  unreachable
}