; Function Attrs: mustprogress uwtable
define hidden noundef zeroext i1 @_ZN3mbp18euf_project_plugin18solve_eqs_saturateER5modelR10ref_vectorI3app11ast_managerERS3_I4exprS5_ER6vectorINS_3defELb1EjE(ptr noundef nonnull readonly align 8 captures(none) dereferenceable(192) %0, ptr noundef nonnull readnone align 8 captures(none) dereferenceable(160) %1, ptr noundef nonnull readonly align 8 captures(none) dereferenceable(16) %2, ptr noundef nonnull align 8 dereferenceable(16) %3, ptr noundef nonnull align 8 dereferenceable(8) %4) local_unnamed_addr #3 align 2 {
  %6 = load ptr, ptr %4, align 8, !tbaa !73
  %7 = icmp eq ptr %6, null
  br i1 %7, label %_ZNK6vectorIN3mbp3defELb1EjE4sizeEv.exit, label %8

8:                                                ; preds = %5
  %9 = getelementptr inbounds i8, ptr %6, i64 -4
  %10 = load i32, ptr %9, align 4, !tbaa !32
  br label %_ZNK6vectorIN3mbp3defELb1EjE4sizeEv.exit

_ZNK6vectorIN3mbp3defELb1EjE4sizeEv.exit:         ; preds = %5, %8
  %.0.i = phi i32 [ %10, %8 ], [ 0, %5 ]
  br label %thread-pre-split

thread-pre-split:                                 ; preds = %thread-pre-split.backedge, %_ZNK6vectorIN3mbp3defELb1EjE4sizeEv.exit
  %11 = phi ptr [ %6, %_ZNK6vectorIN3mbp3defELb1EjE4sizeEv.exit ], [ %.be, %thread-pre-split.backedge ]
  %12 = icmp eq ptr %11, null
  br i1 %12, label %_ZNK6vectorIN3mbp3defELb1EjE4sizeEv.exit12, label %13

13:                                               ; preds = %thread-pre-split
  %14 = getelementptr inbounds i8, ptr %11, i64 -4
  %15 = load i32, ptr %14, align 4, !tbaa !32
  br label %_ZNK6vectorIN3mbp3defELb1EjE4sizeEv.exit12

_ZNK6vectorIN3mbp3defELb1EjE4sizeEv.exit12:       ; preds = %thread-pre-split, %13
  %.0.i11 = phi i32 [ %15, %13 ], [ 0, %thread-pre-split ]
  tail call void @_ZN3mbp18euf_project_plugin9solve_eqsER5modelR10ref_vectorI3app11ast_managerERS3_I4exprS5_ER6vectorINS_3defELb1EjE(ptr noundef nonnull align 8 dereferenceable(192) %0, ptr nonnull align 8 poison, ptr noundef nonnull align 8 dereferenceable(16) %2, ptr noundef nonnull align 8 dereferenceable(16) %3, ptr noundef nonnull align 8 dereferenceable(8) %4)
  %16 = load ptr, ptr %4, align 8, !tbaa !73
  %17 = icmp eq ptr %16, null
  br i1 %17, label %_ZNK6vectorIN3mbp3defELb1EjE4sizeEv.exit14, label %_ZNK6vectorIN3mbp3defELb1EjE4sizeEv.exit14.thread

_ZNK6vectorIN3mbp3defELb1EjE4sizeEv.exit14:       ; preds = %_ZNK6vectorIN3mbp3defELb1EjE4sizeEv.exit12
  %18 = icmp eq i32 %.0.i11, 0
  br i1 %18, label %_ZNK6vectorIN3mbp3defELb1EjE4sizeEv.exit16, label %thread-pre-split.backedge

thread-pre-split.backedge:                        ; preds = %_ZNK6vectorIN3mbp3defELb1EjE4sizeEv.exit14, %_ZNK6vectorIN3mbp3defELb1EjE4sizeEv.exit14.thread
  %.be = phi ptr [ null, %_ZNK6vectorIN3mbp3defELb1EjE4sizeEv.exit14 ], [ %16, %_ZNK6vectorIN3mbp3defELb1EjE4sizeEv.exit14.thread ]
  br label %thread-pre-split

_ZNK6vectorIN3mbp3defELb1EjE4sizeEv.exit14.thread: ; preds = %_ZNK6vectorIN3mbp3defELb1EjE4sizeEv.exit12
  %19 = getelementptr inbounds i8, ptr %16, i64 -4
  %20 = load i32, ptr %19, align 4, !tbaa !32
  %21 = icmp eq i32 %.0.i11, %20
  br i1 %21, label %_ZNK6vectorIN3mbp3defELb1EjE4sizeEv.exit16, label %thread-pre-split.backedge

_ZNK6vectorIN3mbp3defELb1EjE4sizeEv.exit16:       ; preds = %_ZNK6vectorIN3mbp3defELb1EjE4sizeEv.exit14.thread, %_ZNK6vectorIN3mbp3defELb1EjE4sizeEv.exit14
  %.0.i15 = phi i32 [ 0, %_ZNK6vectorIN3mbp3defELb1EjE4sizeEv.exit14 ], [ %.0.i11, %_ZNK6vectorIN3mbp3defELb1EjE4sizeEv.exit14.thread ]
  %22 = icmp ult i32 %.0.i, %.0.i15
  ret i1 %22
}